; Function Attrs: mustprogress uwtable
define void @_ZN10open_spiel13cliff_walking17CliffWalkingState13DoApplyActionEl(ptr noundef nonnull align 8 captures(none) dereferenceable(84) %0, i64 noundef %1) unnamed_addr #3 align 2 personality ptr @__gxx_personality_v0 {
  %3 = alloca %"class.std::__cxx11::basic_string", align 8
  %4 = alloca %"class.std::allocator", align 1
  switch i64 %1, label %21 [
    i64 0, label %5
    i64 1, label %9
    i64 2, label %13
    i64 3, label %17
  ]

5:                                                ; preds = %2
  %6 = getelementptr inbounds nuw i8, ptr %0, i64 76
  %7 = load i32, ptr %6, align 4
  %8 = add nsw i32 %7, 1
  store i32 %8, ptr %6, align 4
  br label %29

9:                                                ; preds = %2
  %10 = getelementptr inbounds nuw i8, ptr %0, i64 72
  %11 = load i32, ptr %10, align 8
  %12 = add nsw i32 %11, -1
  store i32 %12, ptr %10, align 8
  br label %29

13:                                               ; preds = %2
  %14 = getelementptr inbounds nuw i8, ptr %0, i64 76
  %15 = load i32, ptr %14, align 4
  %16 = add nsw i32 %15, -1
  store i32 %16, ptr %14, align 4
  br label %29

17:                                               ; preds = %2
  %18 = getelementptr inbounds nuw i8, ptr %0, i64 72
  %19 = load i32, ptr %18, align 8
  %20 = add nsw i32 %19, 1
  store i32 %20, ptr %18, align 8
  br label %29

21:                                               ; preds = %2
  call void @_ZNSaIcEC1Ev(ptr noundef nonnull align 1 dereferenceable(1) %4) #24
  invoke void @_ZNSt7__cxx1112basic_stringIcSt11char_traitsIcESaIcEEC2IS3_EEPKcRKS3_(ptr noundef nonnull align 8 dereferenceable(32) %3, ptr noundef nonnull @.str.28, ptr noundef nonnull align 1 dereferenceable(1) %4)
          to label %22 unwind label %24

22:                                               ; preds = %21
  invoke void @_ZN10open_spiel15SpielFatalErrorERKNSt7__cxx1112basic_stringIcSt11char_traitsIcESaIcEEE(ptr noundef nonnull align 8 dereferenceable(32) %3) #23
          to label %23 unwind label %26

23:                                               ; preds = %22
  unreachable

24:                                               ; preds = %21
  %25 = landingpad { ptr, i32 }
          cleanup
  br label %28

26:                                               ; preds = %22
  %27 = landingpad { ptr, i32 }
          cleanup
  call void @_ZNSt7__cxx1112basic_stringIcSt11char_traitsIcESaIcEED1Ev(ptr noundef nonnull align 8 dereferenceable(32) %3) #24
  br label %28

28:                                               ; preds = %26, %24
  %.pn = phi { ptr, i32 } [ %27, %26 ], [ %25, %24 ]
  call void @_ZNSaIcED1Ev(ptr noundef nonnull align 1 dereferenceable(1) %4) #24
  resume { ptr, i32 } %.pn

29:                                               ; preds = %17, %13, %9, %5
  %30 = getelementptr inbounds nuw i8, ptr %0, i64 72
  %31 = load i32, ptr %30, align 8
  %32 = getelementptr inbounds nuw i8, ptr %0, i64 60
  %33 = load i32, ptr %32, align 4
  %34 = add nsw i32 %33, -1
  %.sroa.speculated18 = tail call i32 @llvm.smax.i32(i32 %31, i32 0)
  %.sroa.speculated14 = tail call i32 @llvm.smin.i32(i32 %34, i32 %.sroa.speculated18)
  store i32 %.sroa.speculated14, ptr %30, align 8
  %35 = getelementptr inbounds nuw i8, ptr %0, i64 76
  %36 = load i32, ptr %35, align 4
  %37 = getelementptr inbounds nuw i8, ptr %0, i64 64
  %38 = load i32, ptr %37, align 8
  %39 = add nsw i32 %38, -1
  %.sroa.speculated9 = tail call i32 @llvm.smax.i32(i32 %36, i32 0)
  %.sroa.speculated = tail call i32 @llvm.smin.i32(i32 %39, i32 %.sroa.speculated9)
  store i32 %.sroa.speculated, ptr %35, align 4
  %40 = getelementptr inbounds nuw i8, ptr %0, i64 80
  %41 = load i32, ptr %40, align 8
  %42 = add nsw i32 %41, 1
  store i32 %42, ptr %40, align 8
  ret void
}